target datalayout = "e-m:e-p270:32:32-p271:32:32-p272:64:64-i64:64-i128:128-f80:128-n8:16:32:64-S128"
target triple = "x86_64-unknown-linux-gnu"

%"class.msdfgen::Contour" = type { %"class.std::vector" }
%"class.std::vector" = type { %"struct.std::_Vector_base" }
%"struct.std::_Vector_base" = type { %"struct.std::_Vector_base<msdfgen::EdgeHolder, std::allocator<msdfgen::EdgeHolder>>::_Vector_impl" }
%"struct.std::_Vector_base<msdfgen::EdgeHolder, std::allocator<msdfgen::EdgeHolder>>::_Vector_impl" = type { %"struct.std::_Vector_base<msdfgen::EdgeHolder, std::allocator<msdfgen::EdgeHolder>>::_Vector_impl_data" }
%"struct.std::_Vector_base<msdfgen::EdgeHolder, std::allocator<msdfgen::EdgeHolder>>::_Vector_impl_data" = type { ptr, ptr, ptr }
%"class.__gnu_cxx::__normal_iterator.0" = type { ptr }
%"class.msdfgen::EdgeHolder" = type { ptr }

; Function Attrs: mustprogress nounwind uwtable
define linkonce_odr dso_local noundef nonnull align 8 dereferenceable(8) ptr @_ZNK9__gnu_cxx17__normal_iteratorIPN7msdfgen10EdgeHolderESt6vectorIS2_SaIS2_EEE4baseEv(ptr noundef nonnull align 8 dereferenceable(8) %this) #1 comdat align 2 {
entry:
  %this.addr = alloca ptr, align 8
  store ptr %this, ptr %this.addr, align 8
  %this1 = load ptr, ptr %this.addr, align 8
  %_M_current = getelementptr inbounds %"class.__gnu_cxx::__normal_iterator.0", ptr %this1, i32 0, i32 0
  ret ptr %_M_current
}

; Function Attrs: mustprogress nounwind uwtable
define linkonce_odr dso_local void @_ZN9__gnu_cxx17__normal_iteratorIPN7msdfgen10EdgeHolderESt6vectorIS2_SaIS2_EEEC2ERKS3_(ptr noundef nonnull align 8 dereferenceable(8) %this, ptr noundef nonnull align 8 dereferenceable(8) %__i) unnamed_addr #1 comdat align 2 {
entry:
  %this.addr = alloca ptr, align 8
  %__i.addr = alloca ptr, align 8
  store ptr %this, ptr %this.addr, align 8
  store ptr %__i, ptr %__i.addr, align 8
  %this1 = load ptr, ptr %this.addr, align 8
  %_M_current = getelementptr inbounds %"class.__gnu_cxx::__normal_iterator.0", ptr %this1, i32 0, i32 0
  %0 = load ptr, ptr %__i.addr, align 8
  %1 = load ptr, ptr %0, align 8
  store ptr %1, ptr %_M_current, align 8
  ret void
}

; Function Attrs: mustprogress nounwind uwtable
define linkonce_odr dso_local noundef nonnull align 8 dereferenceable(8) ptr @_ZN9__gnu_cxx17__normal_iteratorIPN7msdfgen10EdgeHolderESt6vectorIS2_SaIS2_EEEppEv(ptr noundef nonnull align 8 dereferenceable(8) %this) #1 comdat align 2 {
entry:
  %this.addr = alloca ptr, align 8
  store ptr %this, ptr %this.addr, align 8
  %this1 = load ptr, ptr %this.addr, align 8
  %_M_current = getelementptr inbounds %"class.__gnu_cxx::__normal_iterator.0", ptr %this1, i32 0, i32 0
  %0 = load ptr, ptr %_M_current, align 8
  %incdec.ptr = getelementptr inbounds %"class.msdfgen::EdgeHolder", ptr %0, i32 1
  store ptr %incdec.ptr, ptr %_M_current, align 8
  ret ptr %this1
}

; Function Attrs: mustprogress nounwind uwtable
define linkonce_odr dso_local noundef nonnull align 8 dereferenceable(8) ptr @_ZNK9__gnu_cxx17__normal_iteratorIPN7msdfgen10EdgeHolderESt6vectorIS2_SaIS2_EEEdeEv(ptr noundef nonnull align 8 dereferenceable(8) %this) #1 comdat align 2 {
entry:
  %this.addr = alloca ptr, align 8
  store ptr %this, ptr %this.addr, align 8
  %this1 = load ptr, ptr %this.addr, align 8
  %_M_current = getelementptr inbounds %"class.__gnu_cxx::__normal_iterator.0", ptr %this1, i32 0, i32 0
  %0 = load ptr, ptr %_M_current, align 8
  ret ptr %0
}

; Function Attrs: mustprogress nounwind uwtable
define linkonce_odr dso_local noundef zeroext i1 @_ZN9__gnu_cxxneIPN7msdfgen10EdgeHolderESt6vectorIS2_SaIS2_EEEEbRKNS_17__normal_iteratorIT_T0_EESC_(ptr noundef nonnull align 8 dereferenceable(8) %__lhs, ptr noundef nonnull align 8 dereferenceable(8) %__rhs) #1 comdat {
entry:
  %__lhs.addr = alloca ptr, align 8
  %__rhs.addr = alloca ptr, align 8
  store ptr %__lhs, ptr %__lhs.addr, align 8
  store ptr %__rhs, ptr %__rhs.addr, align 8
  %0 = load ptr, ptr %__lhs.addr, align 8
  %call = call noundef nonnull align 8 dereferenceable(8) ptr @_ZNK9__gnu_cxx17__normal_iteratorIPN7msdfgen10EdgeHolderESt6vectorIS2_SaIS2_EEE4baseEv(ptr noundef nonnull align 8 dereferenceable(8) %0) #11
  %1 = load ptr, ptr %call, align 8
  %2 = load ptr, ptr %__rhs.addr, align 8
  %call1 = call noundef nonnull align 8 dereferenceable(8) ptr @_ZNK9__gnu_cxx17__normal_iteratorIPN7msdfgen10EdgeHolderESt6vectorIS2_SaIS2_EEE4baseEv(ptr noundef nonnull align 8 dereferenceable(8) %2) #11
  %3 = load ptr, ptr %call1, align 8
  %cmp = icmp ne ptr %1, %3
  ret i1 %cmp
}

; Function Attrs: mustprogress nounwind uwtable
define linkonce_odr dso_local ptr @_ZNSt6vectorIN7msdfgen10EdgeHolderESaIS1_EE3endEv(ptr noundef nonnull align 8 dereferenceable(24) %this) #1 comdat align 2 {
entry:
  %retval = alloca %"class.__gnu_cxx::__normal_iterator.0", align 8
  %this.addr = alloca ptr, align 8
  store ptr %this, ptr %this.addr, align 8
  %this1 = load ptr, ptr %this.addr, align 8
  %_M_impl = getelementptr inbounds %"struct.std::_Vector_base", ptr %this1, i32 0, i32 0
  %_M_finish = getelementptr inbounds %"struct.std::_Vector_base<msdfgen::EdgeHolder, std::allocator<msdfgen::EdgeHolder>>::_Vector_impl_data", ptr %_M_impl, i32 0, i32 1
  call void @_ZN9__gnu_cxx17__normal_iteratorIPN7msdfgen10EdgeHolderESt6vectorIS2_SaIS2_EEEC2ERKS3_(ptr noundef nonnull align 8 dereferenceable(8) %retval, ptr noundef nonnull align 8 dereferenceable(8) %_M_finish) #11
  %coerce.dive = getelementptr inbounds %"class.__gnu_cxx::__normal_iterator.0", ptr %retval, i32 0, i32 0
  %0 = load ptr, ptr %coerce.dive, align 8
  ret ptr %0
}

; Function Attrs: mustprogress nounwind uwtable
define linkonce_odr dso_local ptr @_ZNSt6vectorIN7msdfgen10EdgeHolderESaIS1_EE5beginEv(ptr noundef nonnull align 8 dereferenceable(24) %this) #1 comdat align 2 {
entry:
  %retval = alloca %"class.__gnu_cxx::__normal_iterator.0", align 8
  %this.addr = alloca ptr, align 8
  store ptr %this, ptr %this.addr, align 8
  %this1 = load ptr, ptr %this.addr, align 8
  %_M_impl = getelementptr inbounds %"struct.std::_Vector_base", ptr %this1, i32 0, i32 0
  %_M_start = getelementptr inbounds %"struct.std::_Vector_base<msdfgen::EdgeHolder, std::allocator<msdfgen::EdgeHolder>>::_Vector_impl_data", ptr %_M_impl, i32 0, i32 0
  call void @_ZN9__gnu_cxx17__normal_iteratorIPN7msdfgen10EdgeHolderESt6vectorIS2_SaIS2_EEEC2ERKS3_(ptr noundef nonnull align 8 dereferenceable(8) %retval, ptr noundef nonnull align 8 dereferenceable(8) %_M_start) #11
  %coerce.dive = getelementptr inbounds %"class.__gnu_cxx::__normal_iterator.0", ptr %retval, i32 0, i32 0
  %0 = load ptr, ptr %coerce.dive, align 8
  ret ptr %0
}

; Function Attrs: mustprogress nounwind uwtable
define linkonce_odr dso_local noundef nonnull align 8 dereferenceable(8) ptr @_ZNSt6vectorIN7msdfgen10EdgeHolderESaIS1_EEixEm(ptr noundef nonnull align 8 dereferenceable(24) %this, i64 noundef %__n) #1 comdat align 2 {
entry:
  %this.addr = alloca ptr, align 8
  %__n.addr = alloca i64, align 8
  store ptr %this, ptr %this.addr, align 8
  store i64 %__n, ptr %__n.addr, align 8
  %this1 = load ptr, ptr %this.addr, align 8
  %_M_impl = getelementptr inbounds %"struct.std::_Vector_base", ptr %this1, i32 0, i32 0
  %_M_start = getelementptr inbounds %"struct.std::_Vector_base<msdfgen::EdgeHolder, std::allocator<msdfgen::EdgeHolder>>::_Vector_impl_data", ptr %_M_impl, i32 0, i32 0
  %0 = load ptr, ptr %_M_start, align 8
  %1 = load i64, ptr %__n.addr, align 8
  %add.ptr = getelementptr inbounds %"class.msdfgen::EdgeHolder", ptr %0, i64 %1
  ret ptr %add.ptr
}

; Function Attrs: mustprogress nounwind uwtable
define linkonce_odr dso_local noundef i64 @_ZNKSt6vectorIN7msdfgen10EdgeHolderESaIS1_EE4sizeEv(ptr noundef nonnull align 8 dereferenceable(24) %this) #1 comdat align 2 {
entry:
  %this.addr = alloca ptr, align 8
  store ptr %this, ptr %this.addr, align 8
  %this1 = load ptr, ptr %this.addr, align 8
  %_M_impl = getelementptr inbounds %"struct.std::_Vector_base", ptr %this1, i32 0, i32 0
  %_M_finish = getelementptr inbounds %"struct.std::_Vector_base<msdfgen::EdgeHolder, std::allocator<msdfgen::EdgeHolder>>::_Vector_impl_data", ptr %_M_impl, i32 0, i32 1
  %0 = load ptr, ptr %_M_finish, align 8
  %_M_impl2 = getelementptr inbounds %"struct.std::_Vector_base", ptr %this1, i32 0, i32 0
  %_M_start = getelementptr inbounds %"struct.std::_Vector_base<msdfgen::EdgeHolder, std::allocator<msdfgen::EdgeHolder>>::_Vector_impl_data", ptr %_M_impl2, i32 0, i32 0
  %1 = load ptr, ptr %_M_start, align 8
  %sub.ptr.lhs.cast = ptrtoint ptr %0 to i64
  %sub.ptr.rhs.cast = ptrtoint ptr %1 to i64
  %sub.ptr.sub = sub i64 %sub.ptr.lhs.cast, %sub.ptr.rhs.cast
  %sub.ptr.div = sdiv exact i64 %sub.ptr.sub, 8
  ret i64 %sub.ptr.div
}

; Function Attrs: mustprogress uwtable
define dso_local void @_ZN7msdfgen7Contour7reverseEv(ptr noundef nonnull align 8 dereferenceable(24) %this) #0 align 2 {
entry:
  %this.addr = alloca ptr, align 8
  %i = alloca i32, align 4
  %edge = alloca %"class.__gnu_cxx::__normal_iterator.0", align 8
  %ref.tmp = alloca %"class.__gnu_cxx::__normal_iterator.0", align 8
  store ptr %this, ptr %this.addr, align 8
  %this1 = load ptr, ptr %this.addr, align 8
  %edges = getelementptr inbounds %"class.msdfgen::Contour", ptr %this1, i32 0, i32 0
  %call = call noundef i64 @_ZNKSt6vectorIN7msdfgen10EdgeHolderESaIS1_EE4sizeEv(ptr noundef nonnull align 8 dereferenceable(24) %edges) #11
  %conv = trunc i64 %call to i32
  %div = sdiv i32 %conv, 2
  store i32 %div, ptr %i, align 4
  br label %for.cond

for.cond:                                         ; preds = %for.inc, %entry
  %0 = load i32, ptr %i, align 4
  %cmp = icmp sgt i32 %0, 0
  br i1 %cmp, label %for.body, label %for.end

for.body:                                         ; preds = %for.cond
  %edges2 = getelementptr inbounds %"class.msdfgen::Contour", ptr %this1, i32 0, i32 0
  %1 = load i32, ptr %i, align 4
  %sub = sub nsw i32 %1, 1
  %conv3 = sext i32 %sub to i64
  %call4 = call noundef nonnull align 8 dereferenceable(8) ptr @_ZNSt6vectorIN7msdfgen10EdgeHolderESaIS1_EEixEm(ptr noundef nonnull align 8 dereferenceable(24) %edges2, i64 noundef %conv3) #11
  %edges5 = getelementptr inbounds %"class.msdfgen::Contour", ptr %this1, i32 0, i32 0
  %edges6 = getelementptr inbounds %"class.msdfgen::Contour", ptr %this1, i32 0, i32 0
  %call7 = call noundef i64 @_ZNKSt6vectorIN7msdfgen10EdgeHolderESaIS1_EE4sizeEv(ptr noundef nonnull align 8 dereferenceable(24) %edges6) #11
  %2 = load i32, ptr %i, align 4
  %conv8 = sext i32 %2 to i64
  %sub9 = sub i64 %call7, %conv8
  %call10 = call noundef nonnull align 8 dereferenceable(8) ptr @_ZNSt6vectorIN7msdfgen10EdgeHolderESaIS1_EEixEm(ptr noundef nonnull align 8 dereferenceable(24) %edges5, i64 noundef %sub9) #11
  call void @_ZN7msdfgen10EdgeHolder4swapERS0_S1_(ptr noundef nonnull align 8 dereferenceable(8) %call4, ptr noundef nonnull align 8 dereferenceable(8) %call10)
  br label %for.inc

for.inc:                                          ; preds = %for.body
  %3 = load i32, ptr %i, align 4
  %dec = add nsw i32 %3, -1
  store i32 %dec, ptr %i, align 4
  br label %for.cond, !llvm.loop !9

for.end:                                          ; preds = %for.cond
  %edges11 = getelementptr inbounds %"class.msdfgen::Contour", ptr %this1, i32 0, i32 0
  %call12 = call ptr @_ZNSt6vectorIN7msdfgen10EdgeHolderESaIS1_EE5beginEv(ptr noundef nonnull align 8 dereferenceable(24) %edges11) #11
  %coerce.dive = getelementptr inbounds %"class.__gnu_cxx::__normal_iterator.0", ptr %edge, i32 0, i32 0
  store ptr %call12, ptr %coerce.dive, align 8
  br label %for.cond13

for.cond13:                                       ; preds = %for.inc21, %for.end
  %edges14 = getelementptr inbounds %"class.msdfgen::Contour", ptr %this1, i32 0, i32 0
  %call15 = call ptr @_ZNSt6vectorIN7msdfgen10EdgeHolderESaIS1_EE3endEv(ptr noundef nonnull align 8 dereferenceable(24) %edges14) #11
  %coerce.dive16 = getelementptr inbounds %"class.__gnu_cxx::__normal_iterator.0", ptr %ref.tmp, i32 0, i32 0
  store ptr %call15, ptr %coerce.dive16, align 8
  %call17 = call noundef zeroext i1 @_ZN9__gnu_cxxneIPN7msdfgen10EdgeHolderESt6vectorIS2_SaIS2_EEEEbRKNS_17__normal_iteratorIT_T0_EESC_(ptr noundef nonnull align 8 dereferenceable(8) %edge, ptr noundef nonnull align 8 dereferenceable(8) %ref.tmp) #11
  br i1 %call17, label %for.body18, label %for.end23

for.body18:                                       ; preds = %for.cond13
  %call19 = call noundef nonnull align 8 dereferenceable(8) ptr @_ZNK9__gnu_cxx17__normal_iteratorIPN7msdfgen10EdgeHolderESt6vectorIS2_SaIS2_EEEdeEv(ptr noundef nonnull align 8 dereferenceable(8) %edge) #11
  %call20 = call noundef ptr @_ZN7msdfgen10EdgeHolderptEv(ptr noundef nonnull align 8 dereferenceable(8) %call19)
  %vtable = load ptr, ptr %call20, align 8
  %vfn = getelementptr inbounds ptr, ptr %vtable, i64 12
  %4 = load ptr, ptr %vfn, align 8
  call void %4(ptr noundef nonnull align 8 dereferenceable(12) %call20)
  br label %for.inc21

for.inc21:                                        ; preds = %for.body18
  %call22 = call noundef nonnull align 8 dereferenceable(8) ptr @_ZN9__gnu_cxx17__normal_iteratorIPN7msdfgen10EdgeHolderESt6vectorIS2_SaIS2_EEEppEv(ptr noundef nonnull align 8 dereferenceable(8) %edge) #11
  br label %for.cond13, !llvm.loop !10

for.end23:                                        ; preds = %for.cond13
  ret void
}