; Function Attrs: mustprogress uwtable
define dso_local void @_ZN7msdfgen7Contour7reverseEv(ptr noundef nonnull readonly align 8 captures(none) dereferenceable(24) %this) local_unnamed_addr #0 align 2 {
entry:
  %_M_finish.i = getelementptr inbounds nuw i8, ptr %this, i64 8
  %0 = load ptr, ptr %_M_finish.i, align 8
  %1 = load ptr, ptr %this, align 8
  %sub.ptr.lhs.cast.i = ptrtoint ptr %0 to i64
  %sub.ptr.rhs.cast.i = ptrtoint ptr %1 to i64
  %sub.ptr.sub.i = sub i64 %sub.ptr.lhs.cast.i, %sub.ptr.rhs.cast.i
  %sub.ptr.div.i = lshr exact i64 %sub.ptr.sub.i, 3
  %conv = trunc i64 %sub.ptr.div.i to i32
  %cmp13 = icmp sgt i32 %conv, 1
  br i1 %cmp13, label %for.body.preheader, label %for.end

for.body.preheader:                               ; preds = %entry
  %div1920 = lshr i64 %sub.ptr.sub.i, 4
  %2 = and i64 %div1920, 2147483647
  br label %for.body

for.body:                                         ; preds = %for.body.preheader, %for.body
  %indvars.iv = phi i64 [ %2, %for.body.preheader ], [ %indvars.iv.next, %for.body ]
  %indvars.iv.next = add nsw i64 %indvars.iv, -1
  %3 = load ptr, ptr %this, align 8
  %add.ptr.i = getelementptr inbounds nuw %"class.msdfgen::EdgeHolder", ptr %3, i64 %indvars.iv.next
  %4 = load ptr, ptr %_M_finish.i, align 8
  %sub.ptr.lhs.cast.i5 = ptrtoint ptr %4 to i64
  %sub.ptr.rhs.cast.i6 = ptrtoint ptr %3 to i64
  %sub.ptr.sub.i7 = sub i64 %sub.ptr.lhs.cast.i5, %sub.ptr.rhs.cast.i6
  %sub.ptr.div.i8 = ashr exact i64 %sub.ptr.sub.i7, 3
  %sub9 = sub nsw i64 %sub.ptr.div.i8, %indvars.iv
  %add.ptr.i9 = getelementptr inbounds %"class.msdfgen::EdgeHolder", ptr %3, i64 %sub9
  tail call void @_ZN7msdfgen10EdgeHolder4swapERS0_S1_(ptr noundef nonnull align 8 dereferenceable(8) %add.ptr.i, ptr noundef nonnull align 8 dereferenceable(8) %add.ptr.i9)
  %cmp = icmp samesign ugt i64 %indvars.iv, 1
  br i1 %cmp, label %for.body, label %for.end.loopexit, !llvm.loop !10

for.end.loopexit:                                 ; preds = %for.body
  %.pre = load ptr, ptr %this, align 8
  %.pre18 = load ptr, ptr %_M_finish.i, align 8
  br label %for.end

for.end:                                          ; preds = %for.end.loopexit, %entry
  %5 = phi ptr [ %.pre18, %for.end.loopexit ], [ %0, %entry ]
  %6 = phi ptr [ %.pre, %for.end.loopexit ], [ %1, %entry ]
  %cmp.i.not15 = icmp eq ptr %6, %5
  br i1 %cmp.i.not15, label %for.end23, label %for.body18

for.body18:                                       ; preds = %for.end, %for.body18
  %edge.sroa.0.016 = phi ptr [ %incdec.ptr.i, %for.body18 ], [ %6, %for.end ]
  %call20 = tail call noundef ptr @_ZN7msdfgen10EdgeHolderptEv(ptr noundef nonnull align 8 dereferenceable(8) %edge.sroa.0.016)
  %vtable = load ptr, ptr %call20, align 8
  %vfn = getelementptr inbounds nuw i8, ptr %vtable, i64 96
  %7 = load ptr, ptr %vfn, align 8
  tail call void %7(ptr noundef nonnull align 8 dereferenceable(12) %call20)
  %incdec.ptr.i = getelementptr inbounds nuw i8, ptr %edge.sroa.0.016, i64 8
  %8 = load ptr, ptr %_M_finish.i, align 8
  %cmp.i.not = icmp eq ptr %incdec.ptr.i, %8
  br i1 %cmp.i.not, label %for.end23, label %for.body18, !llvm.loop !11

for.end23:                                        ; preds = %for.body18, %for.end
  ret void
}